target datalayout = "e-m:e-p270:32:32-p271:32:32-p272:64:64-i64:64-i128:128-f80:128-n8:16:32:64-S128"
target triple = "x86_64-pc-linux-gnu"

%struct.rusage = type { %struct.timeval, %struct.timeval, %union.anon, %union.anon.0, %union.anon.1, %union.anon.2, %union.anon.3, %union.anon.4, %union.anon.5, %union.anon.6, %union.anon.7, %union.anon.8, %union.anon.9, %union.anon.10, %union.anon.11, %union.anon.12 }
%struct.timeval = type { i64, i64 }
%union.anon = type { i64 }
%union.anon.0 = type { i64 }
%union.anon.1 = type { i64 }
%union.anon.2 = type { i64 }
%union.anon.3 = type { i64 }
%union.anon.4 = type { i64 }
%union.anon.5 = type { i64 }
%union.anon.6 = type { i64 }
%union.anon.7 = type { i64 }
%union.anon.8 = type { i64 }
%union.anon.9 = type { i64 }
%union.anon.10 = type { i64 }
%union.anon.11 = type { i64 }
%union.anon.12 = type { i64 }

@log_parser_stats = external global i8, align 1
@.str = private unnamed_addr constant [18 x i8] c"PARSER STATISTICS\00", align 1
@Save_r = internal global %struct.rusage zeroinitializer, align 8
@Save_t = internal global %struct.timeval zeroinitializer, align 8

; Function Attrs: nounwind uwtable
define dso_local void @ResetUsage() #0 {
  %1 = call i32 @getrusage(i32 noundef 0, ptr noundef @Save_r) #16
  %2 = call i32 @gettimeofday(ptr noundef @Save_t, ptr noundef null) #16
  ret void
}

; Function Attrs: nounwind uwtable
define dso_local ptr @pg_parse_query(ptr noundef %0) #0 {
  %2 = alloca ptr, align 8
  %3 = alloca ptr, align 8
  store ptr %0, ptr %2, align 8
  call void @llvm.lifetime.start.p0(i64 8, ptr %3) #16
  br label %4

4:                                                ; preds = %1
  br label %5

5:                                                ; preds = %4
  br label %6

6:                                                ; preds = %5
  %7 = load i8, ptr @log_parser_stats, align 1, !range !4, !noundef !5
  %8 = trunc i8 %7 to i1
  br i1 %8, label %9, label %10

9:                                                ; preds = %6
  call void @ResetUsage()
  br label %10

10:                                               ; preds = %9, %6
  %11 = load ptr, ptr %2, align 8
  %12 = call ptr @raw_parser(ptr noundef %11, i32 noundef 0)
  store ptr %12, ptr %3, align 8
  %13 = load i8, ptr @log_parser_stats, align 1, !range !4, !noundef !5
  %14 = trunc i8 %13 to i1
  br i1 %14, label %15, label %16

15:                                               ; preds = %10
  call void @ShowUsage(ptr noundef @.str)
  br label %16

16:                                               ; preds = %15, %10
  br label %17

17:                                               ; preds = %16
  br label %18

18:                                               ; preds = %17
  br label %19

19:                                               ; preds = %18
  %20 = load ptr, ptr %3, align 8
  call void @llvm.lifetime.end.p0(i64 8, ptr %3) #16
  ret ptr %20
}