; Function Attrs: nounwind uwtable
define dso_local ptr @pg_parse_query(ptr noundef %0) local_unnamed_addr #0 {
  %2 = load i8, ptr @log_parser_stats, align 1, !range !5, !noundef !6
  %3 = trunc nuw i8 %2 to i1
  br i1 %3, label %4, label %7

4:                                                ; preds = %1
  %5 = tail call i32 @getrusage(i32 noundef 0, ptr noundef nonnull @Save_r) #22
  %6 = tail call i32 @gettimeofday(ptr noundef nonnull @Save_t, ptr noundef null) #22
  br label %7

7:                                                ; preds = %4, %1
  %8 = tail call ptr @raw_parser(ptr noundef %0, i32 noundef 0) #22
  %9 = load i8, ptr @log_parser_stats, align 1, !range !5, !noundef !6
  %10 = trunc nuw i8 %9 to i1
  br i1 %10, label %11, label %12

11:                                               ; preds = %7
  tail call void @ShowUsage(ptr noundef nonnull @.str)
  br label %12

12:                                               ; preds = %7, %11
  ret ptr %8
}